target datalayout = "e-m:e-p270:32:32-p271:32:32-p272:64:64-i64:64-i128:128-f80:128-n8:16:32:64-S128"
target triple = "x86_64-pc-linux-gnu"

@.str.5 = private unnamed_addr constant [113 x i8] c"generated/home/dtcxzyw/WorkSpace/Projects/compilers/llvm-opt-benchmark/bench/z3/z3/src/math/lp/lp_settings_def.h\00", align 1
@.str.6 = private unnamed_addr constant [29 x i8] c"UNEXPECTED CODE WAS REACHED.\00", align 1
@.str.8 = private unnamed_addr constant [8 x i8] c"UNKNOWN\00", align 1
@.str.9 = private unnamed_addr constant [11 x i8] c"INFEASIBLE\00", align 1
@.str.10 = private unnamed_addr constant [10 x i8] c"UNBOUNDED\00", align 1
@.str.13 = private unnamed_addr constant [8 x i8] c"OPTIMAL\00", align 1
@.str.14 = private unnamed_addr constant [9 x i8] c"FEASIBLE\00", align 1
@.str.15 = private unnamed_addr constant [15 x i8] c"TIME_EXHAUSTED\00", align 1
@.str.16 = private unnamed_addr constant [6 x i8] c"EMPTY\00", align 1

; Function Attrs: mustprogress uwtable
define hidden noundef i32 @_ZN2lp21lp_status_from_stringENSt7__cxx1112basic_stringIcSt11char_traitsIcESaIcEEE(ptr noundef %0) #4 {
  %2 = alloca i32, align 4
  %3 = alloca ptr, align 8
  store ptr %0, ptr %3, align 8, !tbaa !10
  %4 = call noundef zeroext i1 @_ZSteqIcSt11char_traitsIcESaIcEEbRKNSt7__cxx1112basic_stringIT_T0_T1_EEPKS5_(ptr noundef nonnull align 8 dereferenceable(32) %0, ptr noundef @.str.8)
  br i1 %4, label %5, label %6

5:                                                ; preds = %1
  store i32 0, ptr %2, align 4
  br label %25

6:                                                ; preds = %1
  %7 = call noundef zeroext i1 @_ZSteqIcSt11char_traitsIcESaIcEEbRKNSt7__cxx1112basic_stringIT_T0_T1_EEPKS5_(ptr noundef nonnull align 8 dereferenceable(32) %0, ptr noundef @.str.9)
  br i1 %7, label %8, label %9

8:                                                ; preds = %6
  store i32 1, ptr %2, align 4
  br label %25

9:                                                ; preds = %6
  %10 = call noundef zeroext i1 @_ZSteqIcSt11char_traitsIcESaIcEEbRKNSt7__cxx1112basic_stringIT_T0_T1_EEPKS5_(ptr noundef nonnull align 8 dereferenceable(32) %0, ptr noundef @.str.10)
  br i1 %10, label %11, label %12

11:                                               ; preds = %9
  store i32 3, ptr %2, align 4
  br label %25

12:                                               ; preds = %9
  %13 = call noundef zeroext i1 @_ZSteqIcSt11char_traitsIcESaIcEEbRKNSt7__cxx1112basic_stringIT_T0_T1_EEPKS5_(ptr noundef nonnull align 8 dereferenceable(32) %0, ptr noundef @.str.13)
  br i1 %13, label %14, label %15

14:                                               ; preds = %12
  store i32 11, ptr %2, align 4
  br label %25

15:                                               ; preds = %12
  %16 = call noundef zeroext i1 @_ZSteqIcSt11char_traitsIcESaIcEEbRKNSt7__cxx1112basic_stringIT_T0_T1_EEPKS5_(ptr noundef nonnull align 8 dereferenceable(32) %0, ptr noundef @.str.14)
  br i1 %16, label %17, label %18

17:                                               ; preds = %15
  store i32 10, ptr %2, align 4
  br label %25

18:                                               ; preds = %15
  %19 = call noundef zeroext i1 @_ZSteqIcSt11char_traitsIcESaIcEEbRKNSt7__cxx1112basic_stringIT_T0_T1_EEPKS5_(ptr noundef nonnull align 8 dereferenceable(32) %0, ptr noundef @.str.15)
  br i1 %19, label %20, label %21

20:                                               ; preds = %18
  store i32 6, ptr %2, align 4
  br label %25

21:                                               ; preds = %18
  %22 = call noundef zeroext i1 @_ZSteqIcSt11char_traitsIcESaIcEEbRKNSt7__cxx1112basic_stringIT_T0_T1_EEPKS5_(ptr noundef nonnull align 8 dereferenceable(32) %0, ptr noundef @.str.16)
  br i1 %22, label %23, label %24

23:                                               ; preds = %21
  store i32 7, ptr %2, align 4
  br label %25

24:                                               ; preds = %21
  call void @_Z26notify_assertion_violationPKciS0_(ptr noundef @.str.5, i32 noundef 66, ptr noundef @.str.6)
  call void @_Z18invoke_exit_actionj(i32 noundef 114)
  store i32 0, ptr %2, align 4
  br label %25

25:                                               ; preds = %24, %23, %20, %17, %14, %11, %8, %5
  %26 = load i32, ptr %2, align 4
  ret i32 %26
}