; Function Attrs: mustprogress uwtable
define hidden noundef range(i32 0, 12) i32 @_ZN2lp21lp_status_from_stringENSt7__cxx1112basic_stringIcSt11char_traitsIcESaIcEEE(ptr noundef %0) local_unnamed_addr #3 personality ptr @__gxx_personality_v0 {
  %2 = getelementptr inbounds nuw i8, ptr %0, i64 8
  %3 = load i64, ptr %2, align 8, !tbaa !9
  %cond = icmp eq i64 %3, 0
  br i1 %cond, label %_ZSteqIcSt11char_traitsIcESaIcEEbRKNSt7__cxx1112basic_stringIT_T0_T1_EEPKS5_.exit35.thread, label %_ZNSt11char_traitsIcE7compareEPKcS2_m.exit.i.i

_ZNSt11char_traitsIcE7compareEPKcS2_m.exit.i.i:   ; preds = %1
  %.sroa.speculated.i.i = tail call i64 @llvm.umin.i64(i64 %3, i64 7)
  %4 = load ptr, ptr %0, align 8, !tbaa !13
  %bcmp.i = tail call i32 @bcmp(ptr %4, ptr nonnull @.str.8, i64 %.sroa.speculated.i.i)
  %.not.i.i = icmp eq i32 %bcmp.i, 0
  %5 = icmp eq i64 %3, 7
  %or.cond = and i1 %5, %.not.i.i
  br i1 %or.cond, label %12, label %_ZNSt11char_traitsIcE7compareEPKcS2_m.exit.i.i2

_ZNSt11char_traitsIcE7compareEPKcS2_m.exit.i.i2:  ; preds = %_ZNSt11char_traitsIcE7compareEPKcS2_m.exit.i.i
  %.sroa.speculated.i.i1 = tail call i64 @llvm.umin.i64(i64 %3, i64 10)
  %bcmp.i3 = tail call i32 @bcmp(ptr %4, ptr nonnull @.str.9, i64 %.sroa.speculated.i.i1)
  %.not.i.i4 = icmp eq i32 %bcmp.i3, 0
  %6 = icmp eq i64 %3, 10
  %or.cond43 = and i1 %6, %.not.i.i4
  br i1 %or.cond43, label %12, label %_ZNSt11char_traitsIcE7compareEPKcS2_m.exit.i.i9

_ZNSt11char_traitsIcE7compareEPKcS2_m.exit.i.i9:  ; preds = %_ZNSt11char_traitsIcE7compareEPKcS2_m.exit.i.i2
  %.sroa.speculated.i.i8 = tail call i64 @llvm.umin.i64(i64 %3, i64 9)
  %bcmp.i10 = tail call i32 @bcmp(ptr %4, ptr nonnull @.str.10, i64 %.sroa.speculated.i.i8)
  %.not.i.i11 = icmp eq i32 %bcmp.i10, 0
  %7 = icmp eq i64 %3, 9
  %or.cond45 = and i1 %7, %.not.i.i11
  br i1 %or.cond45, label %12, label %_ZNSt11char_traitsIcE7compareEPKcS2_m.exit.i.i16

_ZNSt11char_traitsIcE7compareEPKcS2_m.exit.i.i16: ; preds = %_ZNSt11char_traitsIcE7compareEPKcS2_m.exit.i.i9
  %bcmp.i17 = tail call i32 @bcmp(ptr %4, ptr nonnull @.str.13, i64 %.sroa.speculated.i.i)
  %.not.i.i18 = icmp eq i32 %bcmp.i17, 0
  %or.cond47 = and i1 %5, %.not.i.i18
  br i1 %or.cond47, label %12, label %_ZNSt11char_traitsIcE7compareEPKcS2_m.exit.i.i23

_ZNSt11char_traitsIcE7compareEPKcS2_m.exit.i.i23: ; preds = %_ZNSt11char_traitsIcE7compareEPKcS2_m.exit.i.i16
  %.sroa.speculated.i.i22 = tail call i64 @llvm.umin.i64(i64 %3, i64 8)
  %bcmp.i24 = tail call i32 @bcmp(ptr %4, ptr nonnull @.str.14, i64 %.sroa.speculated.i.i22)
  %.not.i.i25 = icmp eq i32 %bcmp.i24, 0
  %8 = icmp eq i64 %3, 8
  %or.cond49 = and i1 %8, %.not.i.i25
  br i1 %or.cond49, label %12, label %_ZNSt11char_traitsIcE7compareEPKcS2_m.exit.i.i30

_ZNSt11char_traitsIcE7compareEPKcS2_m.exit.i.i30: ; preds = %_ZNSt11char_traitsIcE7compareEPKcS2_m.exit.i.i23
  %.sroa.speculated.i.i29 = tail call i64 @llvm.umin.i64(i64 %3, i64 14)
  %bcmp.i31 = tail call i32 @bcmp(ptr %4, ptr nonnull @.str.15, i64 %.sroa.speculated.i.i29)
  %.not.i.i32 = icmp eq i32 %bcmp.i31, 0
  %9 = icmp eq i64 %3, 14
  %or.cond51 = and i1 %9, %.not.i.i32
  br i1 %or.cond51, label %12, label %_ZSteqIcSt11char_traitsIcESaIcEEbRKNSt7__cxx1112basic_stringIT_T0_T1_EEPKS5_.exit35.thread

_ZSteqIcSt11char_traitsIcESaIcEEbRKNSt7__cxx1112basic_stringIT_T0_T1_EEPKS5_.exit35.thread: ; preds = %1, %_ZNSt11char_traitsIcE7compareEPKcS2_m.exit.i.i30
  %10 = tail call noundef zeroext i1 @_ZSteqIcSt11char_traitsIcESaIcEEbRKNSt7__cxx1112basic_stringIT_T0_T1_EEPKS5_(ptr noundef nonnull align 8 dereferenceable(32) %0, ptr noundef nonnull @.str.16)
  br i1 %10, label %12, label %11

11:                                               ; preds = %_ZSteqIcSt11char_traitsIcESaIcEEbRKNSt7__cxx1112basic_stringIT_T0_T1_EEPKS5_.exit35.thread
  tail call void @_Z26notify_assertion_violationPKciS0_(ptr noundef nonnull @.str.5, i32 noundef 66, ptr noundef nonnull @.str.6)
  tail call void @_Z18invoke_exit_actionj(i32 noundef 114)
  br label %12

12:                                               ; preds = %_ZNSt11char_traitsIcE7compareEPKcS2_m.exit.i.i30, %_ZNSt11char_traitsIcE7compareEPKcS2_m.exit.i.i23, %_ZNSt11char_traitsIcE7compareEPKcS2_m.exit.i.i16, %_ZNSt11char_traitsIcE7compareEPKcS2_m.exit.i.i9, %_ZNSt11char_traitsIcE7compareEPKcS2_m.exit.i.i2, %_ZNSt11char_traitsIcE7compareEPKcS2_m.exit.i.i, %_ZSteqIcSt11char_traitsIcESaIcEEbRKNSt7__cxx1112basic_stringIT_T0_T1_EEPKS5_.exit35.thread, %11
  %.0 = phi i32 [ 0, %11 ], [ 7, %_ZSteqIcSt11char_traitsIcESaIcEEbRKNSt7__cxx1112basic_stringIT_T0_T1_EEPKS5_.exit35.thread ], [ 0, %_ZNSt11char_traitsIcE7compareEPKcS2_m.exit.i.i ], [ 1, %_ZNSt11char_traitsIcE7compareEPKcS2_m.exit.i.i2 ], [ 3, %_ZNSt11char_traitsIcE7compareEPKcS2_m.exit.i.i9 ], [ 11, %_ZNSt11char_traitsIcE7compareEPKcS2_m.exit.i.i16 ], [ 10, %_ZNSt11char_traitsIcE7compareEPKcS2_m.exit.i.i23 ], [ 6, %_ZNSt11char_traitsIcE7compareEPKcS2_m.exit.i.i30 ]
  ret i32 %.0
}